target datalayout = "e-m:e-p270:32:32-p271:32:32-p272:64:64-i64:64-i128:128-f80:128-n8:16:32:64-S128"
target triple = "x86_64-pc-linux-gnu"

; Function Attrs: nounwind sspstrong uwtable
define internal i32 @utf32le_mbc_to_code(ptr noundef %0, ptr noundef %1, ptr noundef %2) #0 {
  %4 = alloca ptr, align 8
  %5 = alloca ptr, align 8
  %6 = alloca ptr, align 8
  store ptr %0, ptr %4, align 8, !tbaa !13
  store ptr %1, ptr %5, align 8, !tbaa !13
  store ptr %2, ptr %6, align 8, !tbaa !14
  %7 = load ptr, ptr %4, align 8, !tbaa !13
  %8 = getelementptr inbounds i8, ptr %7, i64 3
  %9 = load i8, ptr %8, align 1, !tbaa !17
  %10 = zext i8 %9 to i32
  %11 = mul nsw i32 %10, 256
  %12 = load ptr, ptr %4, align 8, !tbaa !13
  %13 = getelementptr inbounds i8, ptr %12, i64 2
  %14 = load i8, ptr %13, align 1, !tbaa !17
  %15 = zext i8 %14 to i32
  %16 = add nsw i32 %11, %15
  %17 = mul nsw i32 %16, 256
  %18 = load ptr, ptr %4, align 8, !tbaa !13
  %19 = getelementptr inbounds i8, ptr %18, i64 1
  %20 = load i8, ptr %19, align 1, !tbaa !17
  %21 = zext i8 %20 to i32
  %22 = add nsw i32 %17, %21
  %23 = mul nsw i32 %22, 256
  %24 = load ptr, ptr %4, align 8, !tbaa !13
  %25 = getelementptr inbounds i8, ptr %24, i64 0
  %26 = load i8, ptr %25, align 1, !tbaa !17
  %27 = zext i8 %26 to i32
  %28 = add nsw i32 %23, %27
  ret i32 %28
}

; Function Attrs: nounwind sspstrong uwtable
define internal i32 @utf32le_mbc_enc_len(ptr noundef %0, ptr noundef %1, ptr noundef %2) #0 {
  %4 = alloca i32, align 4
  %5 = alloca ptr, align 8
  %6 = alloca ptr, align 8
  %7 = alloca ptr, align 8
  %8 = alloca i32, align 4
  %9 = alloca i32, align 4
  store ptr %0, ptr %5, align 8, !tbaa !13
  store ptr %1, ptr %6, align 8, !tbaa !13
  store ptr %2, ptr %7, align 8, !tbaa !14
  %10 = load ptr, ptr %6, align 8, !tbaa !13
  %11 = load ptr, ptr %5, align 8, !tbaa !13
  %12 = icmp ult ptr %10, %11
  br i1 %12, label %13, label %14

13:                                               ; preds = %3
  store i32 -1, ptr %4, align 4
  br label %48

14:                                               ; preds = %3
  %15 = load ptr, ptr %6, align 8, !tbaa !13
  %16 = load ptr, ptr %5, align 8, !tbaa !13
  %17 = ptrtoint ptr %15 to i64
  %18 = ptrtoint ptr %16 to i64
  %19 = sub i64 %17, %18
  %20 = icmp slt i64 %19, 4
  br i1 %20, label %21, label %30

21:                                               ; preds = %14
  %22 = load ptr, ptr %6, align 8, !tbaa !13
  %23 = load ptr, ptr %5, align 8, !tbaa !13
  %24 = ptrtoint ptr %22 to i64
  %25 = ptrtoint ptr %23 to i64
  %26 = sub i64 %24, %25
  %27 = trunc i64 %26 to i32
  %28 = sub nsw i32 4, %27
  %29 = sub nsw i32 -1, %28
  store i32 %29, ptr %4, align 4
  br label %48

30:                                               ; preds = %14
  call void @llvm.lifetime.start.p0(i64 4, ptr %8) #3
  %31 = load ptr, ptr %5, align 8, !tbaa !13
  %32 = load ptr, ptr %6, align 8, !tbaa !13
  %33 = load ptr, ptr %7, align 8, !tbaa !14
  %34 = call i32 @utf32le_mbc_to_code(ptr noundef %31, ptr noundef %32, ptr noundef %33)
  store i32 %34, ptr %8, align 4, !tbaa !16
  %35 = load i32, ptr %8, align 4, !tbaa !16
  %36 = icmp ule i32 %35, 1114111
  br i1 %36, label %37, label %45

37:                                               ; preds = %30
  %38 = load i32, ptr %8, align 4, !tbaa !16
  %39 = icmp ult i32 %38, 65536
  br i1 %39, label %40, label %46

40:                                               ; preds = %37
  %41 = load i32, ptr %8, align 4, !tbaa !16
  %42 = lshr i32 %41, 8
  %43 = and i32 %42, 248
  %44 = icmp eq i32 %43, 216
  br i1 %44, label %45, label %46

45:                                               ; preds = %40, %30
  store i32 -1, ptr %4, align 4
  store i32 1, ptr %9, align 4
  br label %47

46:                                               ; preds = %40, %37
  store i32 4, ptr %4, align 4
  store i32 1, ptr %9, align 4
  br label %47

47:                                               ; preds = %46, %45
  call void @llvm.lifetime.end.p0(i64 4, ptr %8) #3
  br label %48

48:                                               ; preds = %47, %21, %13
  %49 = load i32, ptr %4, align 4
  ret i32 %49
}