; Function Attrs: mustprogress nofree norecurse nosync nounwind sspstrong willreturn memory(argmem: read) uwtable
define internal range(i32 -2147483648, 2147483643) i32 @utf32le_mbc_enc_len(ptr noundef %0, ptr noundef %1, ptr readnone captures(none) %2) #2 {
  %4 = icmp ult ptr %1, %0
  br i1 %4, label %23, label %5

5:                                                ; preds = %3
  %6 = ptrtoint ptr %1 to i64
  %7 = ptrtoint ptr %0 to i64
  %8 = sub i64 %6, %7
  %9 = icmp slt i64 %8, 4
  br i1 %9, label %10, label %13

10:                                               ; preds = %5
  %11 = trunc i64 %8 to i32
  %12 = add i32 %11, -5
  br label %23

13:                                               ; preds = %5
  %14 = getelementptr i8, ptr %0, i64 2
  %15 = load i16, ptr %14, align 1
  %16 = icmp ult i16 %15, 17
  br i1 %16, label %17, label %23

17:                                               ; preds = %13
  %18 = getelementptr inbounds nuw i8, ptr %0, i64 1
  %19 = load i8, ptr %18, align 1, !tbaa !6
  %20 = icmp eq i16 %15, 0
  %21 = and i8 %19, -8
  %22 = icmp eq i8 %21, -40
  %or.cond = and i1 %20, %22
  %spec.select = select i1 %or.cond, i32 -1, i32 4
  br label %23

23:                                               ; preds = %17, %13, %3, %10
  %.0 = phi i32 [ %12, %10 ], [ -1, %3 ], [ -1, %13 ], [ %spec.select, %17 ]
  ret i32 %.0
}